Certificate:
    Data:
        Version: 3 (0x2)
        Serial Number:
            65:32:47:81:4f:5f:a6:6b:b8:54:da:f0:53:f3:29:26:5d:72:65:38
        Signature Algorithm: sha256WithRSAEncryption
        Issuer: C = BM, O = QuoVadis Limited, CN = QuoVadis Root CA 2 G3
        Validity
            Not Before: Nov  3 17:41:01 2021 GMT
            Not After : Nov  2 17:41:00 2026 GMT
        Subject: C = BM, O = QuoVadis Limited, CN = QuoVadis Global SSL ICA G3
        Subject Public Key Info:
            Public Key Algorithm: rsaEncryption
                RSA Public-Key: (4096 bit)
                Modulus:
                    00:d7:fc:39:dd:7b:6d:ee:9c:ea:54:c6:24:38:44:
                    5e:99:a4:4e:ce:32:43:7f:51:af:95:49:c8:17:96:
                    0a:0d:3a:9d:24:bb:d6:ce:b1:17:7b:19:bc:a7:15:
                    d0:c6:d7:95:70:98:33:66:57:ed:c3:53:6c:9f:35:
                    82:ce:ee:0e:c2:85:a7:eb:ca:13:29:a2:2b:21:22:
                    23:64:88:98:eb:44:08:d9:d2:83:e4:55:47:89:e9:
                    ff:1c:ff:52:50:b4:c8:55:22:b0:7e:f9:71:9b:09:
                    f1:3d:69:90:63:1f:88:4a:2e:47:41:0c:ec:ed:2e:
                    16:0a:1b:a1:17:d4:3f:9f:36:4d:35:b2:d0:5e:f2:
                    9d:20:3a:61:f1:8a:9c:a8:f4:38:5c:19:26:61:87:
                    56:42:ec:d5:57:af:5a:38:63:dd:1d:5f:b0:f6:a7:
                    1f:4e:4f:e6:6a:1e:3c:59:e9:41:d8:f5:16:87:e8:
                    4b:15:07:67:47:3b:54:1f:ac:52:29:9b:a0:79:bf:
                    b8:73:58:d4:b3:ac:93:be:ea:89:2b:95:0b:9f:f2:
                    ad:d8:37:d8:41:1f:3f:f9:b1:25:84:f8:af:fe:54:
                    88:3e:d5:6a:1c:92:cd:e6:47:cd:9d:8e:89:b4:26:
                    d8:07:e0:7c:c3:77:97:9e:e5:08:cd:ff:58:f4:01:
                    84:c0:0f:4b:58:f3:90:4f:bb:32:36:a3:33:67:f4:
                    69:97:2d:8a:65:b8:1d:ab:2b:8f:c0:10:9d:f0:1d:
                    1e:a6:5e:85:b8:6d:5d:a0:25:7d:f3:44:cc:27:69:
                    34:ae:7c:e2:80:93:55:1e:cd:51:1f:62:64:5c:7c:
                    de:bb:93:aa:9a:3e:19:c2:cf:fe:24:98:aa:13:38:
                    83:b7:f2:e3:9b:0d:85:4f:88:4b:e7:1a:d3:7c:db:
                    c5:39:77:4d:39:64:a1:f5:ee:9c:8e:41:c7:11:37:
                    d1:e1:92:42:90:d9:e7:e8:94:25:c1:0e:02:e5:4a:
                    ae:56:28:70:56:c1:dc:a1:78:e6:1c:1c:6f:33:d6:
                    43:50:dc:3b:68:c5:01:aa:4e:b5:0c:de:4b:e3:19:
                    c9:9c:d3:d9:8b:1e:27:c8:50:1c:ab:bc:62:b5:d9:
                    5b:02:9a:35:fc:a5:f2:41:64:1d:40:43:20:2a:30:
                    34:4a:19:bc:1c:11:09:0a:7c:b2:0a:8b:e9:84:59:
                    cb:4b:83:24:6c:66:9c:2d:9e:d0:15:4a:4a:37:08:
                    be:6a:bf:09:15:87:ef:28:93:93:d7:96:9b:bd:f1:
                    ae:c8:3d:88:8c:83:fe:4c:09:12:72:f2:22:4f:2d:
                    47:95:7c:a7:f8:5c:d4:7d:80:8c:3a:d9:1f:5d:8f:
                    b1:9e:39
                Exponent: 65537 (0x10001)
        X509v3 extensions:
            X509v3 Basic Constraints: critical
                CA:TRUE, pathlen:0
            X509v3 Authority Key Identifier: 
                keyid:ED:E7:6F:76:5A:BF:60:EC:49:5B:C6:A5:77:BB:72:16:71:9B:C4:3D

            Authority Information Access: 
                CA Issuers - URI:http://trust.quovadisglobal.com/qvrca2g3.crt
                OCSP - URI:http://ocsp.quovadisglobal.com

            X509v3 Certificate Policies: 
                Policy: 1.3.6.1.4.1.8024.0.2.100.1.2
                Policy: 2.23.140.1.1
                Policy: 2.23.140.1.2.2
                Policy: 1.3.6.1.4.1.8024.0.2.100.1.1

            X509v3 Extended Key Usage: 
                TLS Web Client Authentication, TLS Web Server Authentication
            X509v3 CRL Distribution Points: 

                Full Name:
                  URI:http://crl.quovadisglobal.com/qvrca2g3.crl

            X509v3 Subject Key Identifier: 
                B3:12:89:B5:A9:4B:35:BC:15:00:F0:80:E9:D8:78:87:F1:13:7C:76
            X509v3 Key Usage: critical
                Certificate Sign, CRL Sign
    Signature Algorithm: sha256WithRSAEncryption
         75:54:f7:56:72:35:85:5c:21:74:5d:d7:bb:68:79:72:6a:72:
         df:44:19:3f:72:ef:d7:47:2a:30:c1:3c:6d:ac:ba:b1:a0:5e:
         65:b3:71:8f:f2:bf:39:c8:23:72:62:80:f2:97:4e:03:9a:73:
         b0:4e:84:68:6a:09:5a:40:5e:41:c3:7a:16:d0:cc:a5:79:87:
         c3:30:96:e8:56:c9:58:a3:da:17:4a:4b:88:8a:73:9d:3a:96:
         46:29:01:67:b5:4b:8e:1d:a9:9c:4d:ea:99:0b:e2:87:30:4b:
         2a:ad:25:b0:16:94:de:e0:a6:f1:5e:69:e8:39:ac:60:f9:37:
         15:44:4b:43:02:d3:b4:ab:58:ac:d2:95:c0:98:58:d0:8d:73:
         89:7d:76:f9:0c:e1:23:3c:09:ed:0c:d8:fc:24:0d:4c:36:91:
         a7:2c:5a:3a:7f:5b:ea:88:84:09:fd:83:1c:7b:17:7e:95:dc:
         9f:5f:ee:29:f2:52:24:9c:59:42:6c:06:d4:c6:a2:c0:cb:bf:
         9b:9b:ae:66:fb:d5:3b:f5:db:87:37:01:1e:cc:c4:2e:3a:da:
         fa:f7:d9:fa:fe:94:1f:6d:54:50:23:73:22:eb:09:bd:5b:7f:
         eb:ee:47:4d:91:3b:ca:8c:47:04:2e:a9:97:10:77:70:15:93:
         54:ca:36:ee:14:71:9e:be:f4:d0:64:c2:e3:88:b3:ae:3e:97:
         23:37:fc:61:81:f5:5c:8f:71:aa:12:b0:be:6d:57:09:6d:c3:
         42:35:73:ca:21:53:3f:cb:5a:ee:53:3e:49:8a:51:7e:8d:a7:
         ba:11:63:22:5a:3d:be:ae:6f:66:47:10:83:48:0d:5f:c9:2d:
         12:7a:7d:23:8f:e3:96:66:91:7a:55:0f:3b:0a:34:e2:40:14:
         e7:a2:df:5c:a5:d7:55:14:29:d8:28:7b:3f:3b:f3:63:ef:77:
         c7:da:f9:71:d0:76:57:a4:33:e8:bc:64:60:ff:56:1a:d1:07:
         53:89:98:6b:89:81:f2:05:1a:fd:a7:95:8f:a4:5b:c6:36:d0:
         c9:76:f6:ef:a3:34:c7:b2:9f:61:6f:05:09:0d:84:bc:0b:dc:
         6f:45:88:fb:92:69:05:d3:14:29:5a:44:5c:c5:1e:30:7f:76:
         2a:7f:0c:62:1d:7f:7d:ef:85:e5:2f:58:b3:3c:04:ae:48:85:
         78:0e:45:69:38:b6:af:43:52:d8:1b:7e:36:e4:e1:7c:46:03:
         81:a7:e9:15:ec:10:3f:13:b5:23:fe:f2:8d:1d:ff:8c:25:9d:
         f1:3f:b8:9a:49:56:b5:a1:54:0d:ac:14:9d:ea:2c:85:65:13:
         b1:05:b6:ee:f8:bd:2e:73
-----BEGIN CERTIFICATE-----
MIIGnTCCBIWgAwIBAgIUZTJHgU9fpmu4VNrwU/MpJl1yZTgwDQYJKoZIhvcNAQEL
BQAwSDELMAkGA1UEBhMCQk0xGTAXBgNVBAoTEFF1b1ZhZGlzIExpbWl0ZWQxHjAc
BgNVBAMTFVF1b1ZhZGlzIFJvb3QgQ0EgMiBHMzAeFw0yMTExMDMxNzQxMDFaFw0y
NjExMDIxNzQxMDBaME0xCzAJBgNVBAYTAkJNMRkwFwYDVQQKExBRdW9WYWRpcyBM
aW1pdGVkMSMwIQYDVQQDExpRdW9WYWRpcyBHbG9iYWwgU1NMIElDQSBHMzCCAiIw
DQYJKoZIhvcNAQEBBQADggIPADCCAgoCggIBANf8Od17be6c6lTGJDhEXpmkTs4y
Q39Rr5VJyBeWCg06nSS71s6xF3sZvKcV0MbXlXCYM2ZX7cNTbJ81gs7uDsKFp+vK
EymiKyEiI2SImOtECNnSg+RVR4np/xz/UlC0yFUisH75cZsJ8T1pkGMfiEouR0EM
7O0uFgoboRfUP582TTWy0F7ynSA6YfGKnKj0OFwZJmGHVkLs1VevWjhj3R1fsPan
H05P5moePFnpQdj1FofoSxUHZ0c7VB+sUimboHm/uHNY1LOsk77qiSuVC5/yrdg3
2EEfP/mxJYT4r/5UiD7VahySzeZHzZ2OibQm2AfgfMN3l57lCM3/WPQBhMAPS1jz
kE+7MjajM2f0aZctimW4Hasrj8AQnfAdHqZehbhtXaAlffNEzCdpNK584oCTVR7N
UR9iZFx83ruTqpo+GcLP/iSYqhM4g7fy45sNhU+IS+ca03zbxTl3TTlkofXunI5B
xxE30eGSQpDZ5+iUJcEOAuVKrlYocFbB3KF45hwcbzPWQ1DcO2jFAapOtQzeS+MZ
yZzT2YseJ8hQHKu8YrXZWwKaNfyl8kFkHUBDICowNEoZvBwRCQp8sgqL6YRZy0uD
JGxmnC2e0BVKSjcIvmq/CRWH7yiTk9eWm73xrsg9iIyD/kwJEnLyIk8tR5V8p/hc
1H2AjDrZH12PsZ45AgMBAAGjggF4MIIBdDASBgNVHRMBAf8ECDAGAQH/AgEAMB8G
A1UdIwQYMBaAFO3nb3Zav2DsSVvGpXe7chZxm8Q9MHQGCCsGAQUFBwEBBGgwZjA4
BggrBgEFBQcwAoYsaHR0cDovL3RydXN0LnF1b3ZhZGlzZ2xvYmFsLmNvbS9xdnJj
YTJnMy5jcnQwKgYIKwYBBQUHMAGGHmh0dHA6Ly9vY3NwLnF1b3ZhZGlzZ2xvYmFs
LmNvbTA8BgNVHSAENTAzMA4GDCsGAQQBvlgAAmQBAjAHBgVngQwBATAIBgZngQwB
AgIwDgYMKwYBBAG+WAACZAEBMB0GA1UdJQQWMBQGCCsGAQUFBwMCBggrBgEFBQcD
ATA7BgNVHR8ENDAyMDCgLqAshipodHRwOi8vY3JsLnF1b3ZhZGlzZ2xvYmFsLmNv
bS9xdnJjYTJnMy5jcmwwHQYDVR0OBBYEFLMSibWpSzW8FQDwgOnYeIfxE3x2MA4G
A1UdDwEB/wQEAwIBBjANBgkqhkiG9w0BAQsFAAOCAgEAdVT3VnI1hVwhdF3Xu2h5
cmpy30QZP3Lv10cqMME8bay6saBeZbNxj/K/OcgjcmKA8pdOA5pzsE6EaGoJWkBe
QcN6FtDMpXmHwzCW6FbJWKPaF0pLiIpznTqWRikBZ7VLjh2pnE3qmQvihzBLKq0l
sBaU3uCm8V5p6DmsYPk3FURLQwLTtKtYrNKVwJhY0I1ziX12+QzhIzwJ7QzY/CQN
TDaRpyxaOn9b6oiECf2DHHsXfpXcn1/uKfJSJJxZQmwG1MaiwMu/m5uuZvvVO/Xb
hzcBHszELjra+vfZ+v6UH21UUCNzIusJvVt/6+5HTZE7yoxHBC6plxB3cBWTVMo2
7hRxnr700GTC44izrj6XIzf8YYH1XI9xqhKwvm1XCW3DQjVzyiFTP8ta7lM+SYpR
fo2nuhFjIlo9vq5vZkcQg0gNX8ktEnp9I4/jlmaRelUPOwo04kAU56LfXKXXVRQp
2Ch7PzvzY+93x9r5cdB2V6Qz6LxkYP9WGtEHU4mYa4mB8gUa/aeVj6RbxjbQyXb2
76M0x7KfYW8FCQ2EvAvcb0WI+5JpBdMUKVpEXMUeMH92Kn8MYh1/fe+F5S9YszwE
rkiFeA5FaTi2r0NS2Bt+NuThfEYDgafpFewQPxO1I/7yjR3/jCWd8T+4mklWtaFU
DawUneoshWUTsQW27vi9LnM=
-----END CERTIFICATE-----
